(dp1
S'layout'
p2
(ilayout
Layout
p3
(dp4
S'capsules'
p5
(lp6
sS'numGhosts'
p7
I4
sS'food'
p8
(igame
Grid
p9
(dp10
S'CELLS_PER_INT'
p11
I30
sS'width'
p12
I34
sS'data'
p13
(lp14
(lp15
I00
aI00
aI00
aI00
aI00
aI00
aI00
aI00
aI00
aI00
aI00
aI00
aI00
aI00
aI00
aI00
aI00
aI00
aa(lp16
I00
aI00
aI00
aI00
aI00
aI00
aI01
aI00
aI00
aI01
aI00
aI01
aI00
aI01
aI00
aI00
aI00
aI00
aa(lp17
I00
aI00
aI00
aI00
aI00
aI00
aI00
aI00
aI00
aI01
aI00
aI01
aI00
aI01
aI00
aI00
aI00
aI00
aa(lp18
I00
aI00
aI00
aI00
aI00
aI00
aI00
aI00
aI00
aI00
aI00
aI00
aI00
aI01
aI00
aI00
aI00
aI00
aa(lp19
I00
aI00
aI00
aI00
aI00
aI00
aI00
aI00
aI00
aI00
aI00
aI00
aI00
aI00
aI00
aI00
aI00
aI00
aa(lp20
I00
aI00
aI00
aI00
aI00
aI00
aI00
aI01
aI00
aI00
aI00
aI00
aI01
aI00
aI00
aI00
aI00
aI00
aa(lp21
I00
aI00
aI00
aI00
aI00
aI00
aI00
aI00
aI00
aI00
aI00
aI00
aI00
aI00
aI00
aI00
aI00
aI00
aa(lp22
I00
aI00
aI00
aI00
aI00
aI00
aI00
aI00
aI00
aI00
aI00
aI00
aI00
aI01
aI00
aI00
aI01
aI00
aa(lp23
I00
aI00
aI00
aI01
aI00
aI00
aI00
aI00
aI00
aI00
aI00
aI00
aI00
aI00
aI00
aI00
aI00
aI00
aa(lp24
I00
aI01
aI00
aI00
aI00
aI00
aI01
aI00
aI00
aI00
aI01
aI00
aI00
aI01
aI01
aI00
aI00
aI00
aa(lp25
I00
aI01
aI00
aI01
aI00
aI00
aI00
aI00
aI00
aI00
aI00
aI00
aI00
aI00
aI00
aI00
aI00
aI00
aa(lp26
I00
aI00
aI00
aI00
aI00
aI00
aI00
aI00
aI00
aI00
aI00
aI00
aI00
aI00
aI01
aI00
aI00
aI00
aa(lp27
I00
aI01
aI00
aI00
aI01
aI00
aI00
aI00
aI00
aI00
aI00
aI00
aI00
aI00
aI01
aI00
aI00
aI00
aa(lp28
I00
aI01
aI00
aI00
aI00
aI00
aI00
aI00
aI00
aI00
aI00
aI00
aI00
aI00
aI00
aI00
aI00
aI00
aa(lp29
I00
aI00
aI00
aI00
aI00
aI00
aI00
aI00
aI00
aI00
aI01
aI01
aI00
aI00
aI00
aI00
aI00
aI00
aa(lp30
I00
aI00
aI00
aI00
aI00
aI00
aI00
aI00
aI00
aI00
aI00
aI00
aI00
aI00
aI00
aI00
aI01
aI00
aa(lp31
I00
aI00
aI00
aI00
aI01
aI00
aI00
aI00
aI00
aI00
aI00
aI00
aI00
aI01
aI00
aI00
aI00
aI00
aa(lp32
I00
aI00
aI00
aI00
aI01
aI00
aI00
aI00
aI00
aI00
aI00
aI00
aI00
aI01
aI00
aI00
aI00
aI00
aa(lp33
I00
aI01
aI00
aI00
aI00
aI00
aI00
aI00
aI00
aI00
aI00
aI00
aI00
aI00
aI00
aI00
aI00
aI00
aa(lp34
I00
aI00
aI00
aI00
aI00
aI00
aI01
aI01
aI00
aI00
aI00
aI00
aI00
aI00
aI00
aI00
aI00
aI00
aa(lp35
I00
aI00
aI00
aI00
aI00
aI00
aI00
aI00
aI00
aI00
aI00
aI00
aI00
aI00
aI00
aI00
aI01
aI00
aa(lp36
I00
aI00
aI00
aI01
aI00
aI00
aI00
aI00
aI00
aI00
aI00
aI00
aI00
aI01
aI00
aI00
aI01
aI00
aa(lp37
I00
aI00
aI00
aI01
aI00
aI00
aI00
aI00
aI00
aI00
aI00
aI00
aI00
aI00
aI00
aI00
aI00
aI00
aa(lp38
I00
aI00
aI00
aI00
aI00
aI00
aI00
aI00
aI00
aI00
aI00
aI00
aI00
aI00
aI01
aI00
aI01
aI00
aa(lp39
I00
aI00
aI00
aI01
aI01
aI00
aI00
aI01
aI00
aI00
aI00
aI01
aI00
aI00
aI00
aI00
aI01
aI00
aa(lp40
I00
aI00
aI00
aI00
aI00
aI00
aI00
aI00
aI00
aI00
aI00
aI00
aI00
aI00
aI01
aI00
aI00
aI00
aa(lp41
I00
aI01
aI00
aI00
aI01
aI00
aI00
aI00
aI00
aI00
aI00
aI00
aI00
aI00
aI00
aI00
aI00
aI00
aa(lp42
I00
aI00
aI00
aI00
aI00
aI00
aI00
aI00
aI00
aI00
aI00
aI00
aI00
aI00
aI00
aI00
aI00
aI00
aa(lp43
I00
aI00
aI00
aI00
aI00
aI01
aI00
aI00
aI00
aI00
aI01
aI00
aI00
aI00
aI00
aI00
aI00
aI00
aa(lp44
I00
aI00
aI00
aI00
aI00
aI00
aI00
aI00
aI00
aI00
aI00
aI00
aI00
aI00
aI00
aI00
aI00
aI00
aa(lp45
I00
aI00
aI00
aI00
aI01
aI00
aI00
aI00
aI00
aI00
aI00
aI00
aI00
aI00
aI00
aI00
aI00
aI00
aa(lp46
I00
aI00
aI00
aI00
aI01
aI00
aI01
aI00
aI01
aI00
aI00
aI00
aI00
aI00
aI00
aI00
aI00
aI00
aa(lp47
I00
aI00
aI00
aI00
aI01
aI00
aI01
aI00
aI01
aI00
aI00
aI01
aI00
aI00
aI00
aI00
aI00
aI00
aa(lp48
I00
aI00
aI00
aI00
aI00
aI00
aI00
aI00
aI00
aI00
aI00
aI00
aI00
aI00
aI00
aI00
aI00
aI00
aasS'height'
p49
I18
sbsS'agentPositions'
p50
(lp51
(I00
(I1
I2
tp52
tp53
a(I00
(I32
I15
tp54
tp55
a(I00
(I1
I1
tp56
tp57
a(I00
(I32
I16
tp58
tp59
asg49
I18
sg12
I34
sS'walls'
p60
(igame
Grid
p61
(dp62
g11
I30
sg12
I34
sg13
(lp63
(lp64
I01
aI01
aI01
aI01
aI01
aI01
aI01
aI01
aI01
aI01
aI01
aI01
aI01
aI01
aI01
aI01
aI01
aI01
aa(lp65
I01
aI00
aI00
aI00
aI00
aI01
aI00
aI00
aI01
aI00
aI01
aI00
aI01
aI00
aI01
aI00
aI00
aI01
aa(lp66
I01
aI00
aI01
aI00
aI00
aI00
aI00
aI00
aI00
aI00
aI00
aI00
aI01
aI00
aI01
aI00
aI00
aI01
aa(lp67
I01
aI00
aI01
aI01
aI01
aI01
aI01
aI00
aI01
aI00
aI01
aI01
aI01
aI00
aI01
aI00
aI00
aI01
aa(lp68
I01
aI00
aI01
aI00
aI00
aI00
aI00
aI00
aI01
aI00
aI00
aI00
aI01
aI00
aI01
aI00
aI00
aI01
aa(lp69
I01
aI00
aI01
aI01
aI01
aI01
aI01
aI00
aI01
aI01
aI01
aI00
aI00
aI00
aI00
aI00
aI00
aI01
aa(lp70
I01
aI00
aI00
aI00
aI00
aI01
aI00
aI00
aI00
aI00
aI00
aI00
aI00
aI00
aI01
aI00
aI00
aI01
aa(lp71
I01
aI00
aI01
aI01
aI00
aI01
aI00
aI00
aI00
aI00
aI00
aI00
aI01
aI00
aI01
aI00
aI00
aI01
aa(lp72
I01
aI00
aI01
aI00
aI00
aI01
aI01
aI01
aI01
aI00
aI01
aI01
aI01
aI01
aI01
aI01
aI00
aI01
aa(lp73
I01
aI00
aI01
aI01
aI00
aI01
aI00
aI00
aI01
aI00
aI00
aI00
aI01
aI00
aI00
aI01
aI00
aI01
aa(lp74
I01
aI00
aI01
aI00
aI00
aI00
aI00
aI00
aI00
aI00
aI01
aI00
aI01
aI00
aI01
aI01
aI00
aI01
aa(lp75
I01
aI01
aI01
aI01
aI01
aI01
aI01
aI00
aI01
aI01
aI01
aI00
aI00
aI00
aI00
aI00
aI00
aI01
aa(lp76
I01
aI00
aI01
aI00
aI00
aI00
aI00
aI00
aI00
aI00
aI00
aI00
aI01
aI01
aI00
aI01
aI00
aI01
aa(lp77
I01
aI00
aI00
aI00
aI01
aI01
aI01
aI00
aI01
aI01
aI01
aI01
aI01
aI00
aI00
aI01
aI00
aI01
aa(lp78
I01
aI00
aI01
aI00
aI00
aI00
aI00
aI00
aI00
aI00
aI00
aI00
aI01
aI00
aI00
aI00
aI00
aI01
aa(lp79
I01
aI00
aI01
aI01
aI00
aI01
aI01
aI01
aI01
aI00
aI01
aI01
aI01
aI00
aI01
aI00
aI00
aI01
aa(lp80
I01
aI00
aI00
aI00
aI00
aI00
aI00
aI00
aI00
aI00
aI00
aI00
aI00
aI00
aI00
aI00
aI00
aI01
aa(lp81
I01
aI00
aI00
aI00
aI00
aI00
aI00
aI00
aI00
aI00
aI00
aI00
aI00
aI00
aI00
aI00
aI00
aI01
aa(lp82
I01
aI00
aI00
aI01
aI00
aI01
aI01
aI01
aI00
aI01
aI01
aI01
aI01
aI00
aI01
aI01
aI00
aI01
aa(lp83
I01
aI00
aI00
aI00
aI00
aI01
aI00
aI00
aI00
aI00
aI00
aI00
aI00
aI00
aI00
aI01
aI00
aI01
aa(lp84
I01
aI00
aI01
aI00
aI00
aI01
aI01
aI01
aI01
aI01
aI00
aI01
aI01
aI01
aI00
aI00
aI00
aI01
aa(lp85
I01
aI00
aI01
aI00
aI01
aI01
aI00
aI00
aI00
aI00
aI00
aI00
aI00
aI00
aI00
aI01
aI00
aI01
aa(lp86
I01
aI00
aI00
aI00
aI00
aI00
aI00
aI01
aI01
aI01
aI00
aI01
aI01
aI01
aI01
aI01
aI01
aI01
aa(lp87
I01
aI00
aI01
aI01
aI00
aI01
aI00
aI01
aI00
aI00
aI00
aI00
aI00
aI00
aI00
aI01
aI00
aI01
aa(lp88
I01
aI00
aI01
aI00
aI00
aI01
aI00
aI00
aI00
aI01
aI00
aI00
aI01
aI00
aI01
aI01
aI00
aI01
aa(lp89
I01
aI00
aI01
aI01
aI01
aI01
aI01
aI01
aI00
aI01
aI01
aI01
aI01
aI00
aI00
aI01
aI00
aI01
aa(lp90
I01
aI00
aI00
aI01
aI00
aI01
aI00
aI00
aI00
aI00
aI00
aI00
aI01
aI00
aI01
aI01
aI00
aI01
aa(lp91
I01
aI00
aI00
aI01
aI00
aI00
aI00
aI00
aI00
aI00
aI00
aI00
aI01
aI00
aI00
aI00
aI00
aI01
aa(lp92
I01
aI00
aI00
aI00
aI00
aI00
aI00
aI01
aI01
aI01
aI00
aI01
aI01
aI01
aI01
aI01
aI00
aI01
aa(lp93
I01
aI00
aI00
aI01
aI00
aI01
aI00
aI00
aI00
aI01
aI00
aI00
aI00
aI00
aI00
aI01
aI00
aI01
aa(lp94
I01
aI00
aI00
aI01
aI00
aI01
aI01
aI01
aI00
aI01
aI00
aI01
aI01
aI01
aI01
aI01
aI00
aI01
aa(lp95
I01
aI00
aI00
aI01
aI00
aI01
aI00
aI00
aI00
aI00
aI00
aI00
aI00
aI00
aI00
aI01
aI00
aI01
aa(lp96
I01
aI00
aI00
aI01
aI00
aI01
aI00
aI01
aI00
aI01
aI00
aI00
aI01
aI00
aI00
aI00
aI00
aI01
aa(lp97
I01
aI01
aI01
aI01
aI01
aI01
aI01
aI01
aI01
aI01
aI01
aI01
aI01
aI01
aI01
aI01
aI01
aI01
aasg49
I18
sbsS'totalFood'
p98
I60
sS'layoutText'
p99
(lp100
S'%%%%%%%%%%%%%%%%%%%%%%%%%%%%%%%%%%'
p101
aS'%      .       .    ..%..       4%'
p102
aS'%       %%% %%    %% %%%%%% %%%%2%'
p103
aS'%%%%% %%%.%..  %  %   %.%.% % %  %'
p104
aS'%...   .%.  %   ..  %.%     % %  %'
p105
aS'%%%%%. %%%% %%%%  % % % %%%%% % %%'
p106
aS'%..%    %    %.%  % % % .%  % % .%'
p107
aS'%% % %  %.%% %.%  %      %  .    %'
p108
aS'%..  %     % %    % % % %%  %%% %%'
p109
aS'%% %%%  %% % % %    % %     %  ..%'
p110
aS'%    .  %      %  %.% %%.%  % % %%'
p111
aS'%. % %  %. % % %  %.%    %    %..%'
p112
aS'%% % %%%%% % % %  %%%% %%%% .%%%%%'
p113
aS'%  % %     %.%  ..   %  .%.   ...%'
p114
aS'%  % % %.%.%   %  %  ..%.%%% %%%%%'
p115
aS'%1%%%% %%%%%% %%    %% %%%       %'
p116
aS'%3       ..%..    .       .      %'
p117
aS'%%%%%%%%%%%%%%%%%%%%%%%%%%%%%%%%%%'
p118
asbsS'blueTeamName'
p119
S'Blue'
p120
sS'actions'
p121
(lp122
(I0
S'South'
p123
tp124
a(I1
S'North'
p125
tp126
a(I2
g125
tp127
a(I3
S'West'
p128
tp129
a(I0
S'East'
p130
tp131
a(I1
g128
tp132
a(I2
g125
tp133
a(I3
g128
tp134
a(I0
g130
tp135
a(I1
g128
tp136
a(I2
g130
tp137
a(I3
g128
tp138
a(I0
g130
tp139
a(I1
g128
tp140
a(I2
g125
tp141
a(I3
g128
tp142
a(I0
g130
tp143
a(I1
g128
tp144
a(I2
g125
tp145
a(I3
g128
tp146
a(I0
g130
tp147
a(I1
g128
tp148
a(I2
g125
tp149
a(I3
g123
tp150
a(I0
g125
tp151
a(I1
g123
tp152
a(I2
g125
tp153
a(I3
g123
tp154
a(I0
g125
tp155
a(I1
g123
tp156
a(I2
g130
tp157
a(I3
g123
tp158
a(I0
g125
tp159
a(I1
g123
tp160
a(I2
g130
tp161
a(I3
g128
tp162
a(I0
g130
tp163
a(I1
g128
tp164
a(I2
g130
tp165
a(I3
g128
tp166
a(I0
g130
tp167
a(I1
g128
tp168
a(I2
g130
tp169
a(I3
g128
tp170
a(I0
g130
tp171
a(I1
g128
tp172
a(I2
g125
tp173
a(I3
g128
tp174
a(I0
g130
tp175
a(I1
g128
tp176
a(I2
g125
tp177
a(I3
g123
tp178
a(I0
g125
tp179
a(I1
g123
tp180
a(I2
g130
tp181
a(I3
g123
tp182
a(I0
g125
tp183
a(I1
g123
tp184
a(I2
g130
tp185
a(I3
g123
tp186
a(I0
g125
tp187
a(I1
g123
tp188
a(I2
g130
tp189
a(I3
g128
tp190
a(I0
g130
tp191
a(I1
g128
tp192
a(I2
S'Stop'
p193
tp194
a(I3
g128
tp195
a(I0
g130
tp196
a(I1
g128
tp197
a(I2
g125
tp198
a(I3
g128
tp199
a(I0
g130
tp200
a(I1
g128
tp201
a(I2
g123
tp202
a(I3
g128
tp203
a(I0
g130
tp204
a(I1
g128
tp205
a(I2
g130
tp206
a(I3
g125
tp207
a(I0
g123
tp208
a(I1
g125
tp209
a(I2
g123
tp210
a(I3
g125
tp211
a(I0
g123
tp212
a(I1
g125
tp213
a(I2
g123
tp214
a(I3
g125
tp215
a(I0
g123
tp216
a(I1
g125
tp217
a(I2
g128
tp218
a(I3
g128
tp219
a(I0
g130
tp220
a(I1
g128
tp221
a(I2
g123
tp222
a(I3
g128
tp223
a(I0
g130
tp224
a(I1
g128
tp225
a(I2
g130
tp226
a(I3
g128
tp227
a(I0
g130
tp228
a(I1
g125
tp229
a(I2
g125
tp230
a(I3
g130
tp231
a(I0
g128
tp232
a(I1
g125
tp233
a(I2
g125
tp234
a(I3
g125
tp235
a(I0
g123
tp236
a(I1
g125
tp237
a(I2
g125
tp238
a(I3
g125
tp239
a(I0
g123
tp240
a(I1
g128
tp241
a(I2
g128
tp242
a(I3
g125
tp243
a(I0
g123
tp244
a(I1
g128
tp245
a(I2
g128
tp246
a(I3
g123
tp247
a(I0
g130
tp248
a(I1
g123
tp249
a(I2
g128
tp250
a(I3
g128
tp251
a(I0
g130
tp252
a(I1
g128
tp253
a(I2
g128
tp254
a(I3
g128
tp255
a(I0
g125
tp256
a(I1
g123
tp257
a(I2
g123
tp258
a(I3
g128
tp259
a(I0
g128
tp260
a(I1
g128
tp261
a(I2
g123
tp262
a(I3
g123
tp263
a(I0
g125
tp264
a(I1
g128
tp265
a(I2
g128
tp266
a(I3
g128
tp267
a(I0
g125
tp268
a(I1
g128
tp269
a(I2
g130
tp270
a(I3
g128
tp271
a(I0
g128
tp272
a(I1
g125
tp273
a(I2
g125
tp274
a(I3
g128
tp275
a(I0
g130
tp276
a(I1
g125
tp277
a(I2
g125
tp278
a(I3
g123
tp279
a(I0
g128
tp280
a(I1
g128
tp281
a(I2
g125
tp282
a(I3
g128
tp283
a(I0
g130
tp284
a(I1
g128
tp285
a(I2
g125
tp286
a(I3
g128
tp287
a(I0
g128
tp288
a(I1
g128
tp289
a(I2
g130
tp290
a(I3
g125
tp291
a(I0
g128
tp292
a(I1
g128
tp293
a(I2
g128
tp294
a(I3
g123
tp295
a(I0
g128
tp296
a(I1
g123
tp297
a(I2
g128
tp298
a(I3
g130
tp299
a(I0
g130
tp300
a(I1
g128
tp301
a(I2
g125
tp302
a(I3
g130
tp303
a(I0
g130
tp304
a(I1
g125
tp305
a(I2
g125
tp306
a(I3
g123
tp307
a(I0
g128
tp308
a(I1
g130
tp309
a(I2
g125
tp310
a(I3
g123
tp311
a(I0
g130
tp312
a(I1
g130
tp313
a(I2
g125
tp314
a(I3
g128
tp315
a(I0
g128
tp316
a(I1
g130
tp317
a(I2
g130
tp318
a(I3
g128
tp319
a(I0
g130
tp320
a(I1
g130
tp321
a(I2
g130
tp322
a(I3
g123
tp323
a(I0
g123
tp324
a(I1
g130
tp325
a(I2
g125
tp326
a(I3
g125
tp327
a(I0
g125
tp328
a(I1
g123
tp329
a(I2
g130
tp330
a(I3
g130
tp331
a(I0
g123
tp332
a(I1
g123
tp333
a(I2
g130
tp334
a(I3
g130
tp335
a(I0
g130
tp336
a(I1
g123
tp337
a(I2
g130
tp338
a(I3
g130
tp339
a(I0
g128
tp340
a(I1
g123
tp341
a(I2
g130
tp342
a(I3
g123
tp343
a(I0
g125
tp344
a(I1
g123
tp345
a(I2
g123
tp346
a(I3
g123
tp347
a(I0
g128
tp348
a(I1
g130
tp349
a(I2
g123
tp350
a(I3
g123
tp351
a(I0
g130
tp352
a(I1
g123
tp353
a(I2
g123
tp354
a(I3
g123
tp355
a(I0
g123
tp356
a(I1
g123
tp357
a(I2
g123
tp358
a(I3
g130
tp359
a(I0
g123
tp360
a(I1
g123
tp361
a(I2
g123
tp362
a(I3
g130
tp363
a(I0
g125
tp364
a(I1
g123
tp365
a(I2
g130
tp366
a(I3
g125
tp367
a(I0
g123
tp368
a(I1
g123
tp369
a(I2
g123
tp370
a(I3
g125
tp371
a(I0
g125
tp372
a(I1
g123
tp373
a(I2
g123
tp374
a(I3
g130
tp375
a(I0
g125
tp376
a(I1
g123
tp377
a(I2
g123
tp378
a(I3
g130
tp379
a(I0
g128
tp380
a(I1
g123
tp381
a(I2
g123
tp382
a(I3
g130
tp383
a(I0
g130
tp384
a(I1
g130
tp385
a(I2
g123
tp386
a(I3
g128
tp387
a(I0
g125
tp388
a(I1
g123
tp389
a(I2
g123
tp390
a(I3
g128
tp391
a(I0
g130
tp392
a(I1
g123
tp393
a(I2
g123
tp394
a(I3
g128
tp395
a(I0
g128
tp396
a(I1
g125
tp397
a(I2
g123
tp398
a(I3
g125
tp399
a(I0
g125
tp400
a(I1
g123
tp401
a(I2
g130
tp402
a(I3
g125
tp403
a(I0
g125
tp404
a(I1
g130
tp405
a(I2
g123
tp406
a(I3
g123
tp407
a(I0
g125
tp408
a(I1
g130
tp409
a(I2
g123
tp410
a(I3
g123
tp411
a(I0
g123
tp412
a(I1
g130
tp413
a(I2
g130
tp414
a(I3
g123
tp415
a(I0
g125
tp416
a(I1
g125
tp417
a(I2
g130
tp418
a(I3
g123
tp419
a(I0
g125
tp420
a(I1
g125
tp421
a(I2
g130
tp422
a(I3
g128
tp423
a(I0
g130
tp424
a(I1
g125
tp425
a(I2
g125
tp426
a(I3
g128
tp427
a(I0
g128
tp428
a(I1
g128
tp429
a(I2
g125
tp430
a(I3
g128
tp431
a(I0
g125
tp432
a(I1
g128
tp433
a(I2
g125
tp434
a(I3
g128
tp435
a(I0
g125
tp436
a(I1
g125
tp437
a(I2
g128
tp438
a(I3
g123
tp439
a(I0
g125
tp440
a(I1
g125
tp441
a(I2
g128
tp442
a(I3
g128
tp443
a(I0
g125
tp444
a(I1
g125
tp445
a(I2
g125
tp446
a(I3
g130
tp447
a(I0
g130
tp448
a(I1
g128
tp449
a(I2
g125
tp450
a(I3
g123
tp451
a(I0
g125
tp452
a(I1
g128
tp453
a(I2
g125
tp454
a(I3
g123
tp455
a(I0
g125
tp456
a(I1
g128
tp457
a(I2
g128
tp458
a(I3
g123
tp459
a(I0
g128
tp460
a(I1
g128
tp461
a(I2
g128
tp462
a(I3
g125
tp463
a(I0
g125
tp464
a(I1
g125
tp465
a(I2
g128
tp466
a(I3
g128
tp467
a(I0
g128
tp468
a(I1
g125
tp469
a(I2
g128
tp470
a(I3
g128
tp471
a(I0
g130
tp472
a(I1
g128
tp473
a(I2
g125
tp474
a(I3
g128
tp475
a(I0
g123
tp476
a(I1
g128
tp477
a(I2
g125
tp478
a(I3
g128
tp479
a(I0
g125
tp480
a(I1
g128
tp481
a(I2
g128
tp482
a(I3
g123
tp483
a(I0
g128
tp484
a(I1
g123
tp485
a(I2
g128
tp486
a(I3
g123
tp487
a(I0
g130
tp488
a(I1
g123
tp489
a(I2
g128
tp490
a(I3
g125
tp491
a(I0
g128
tp492
a(I1
g128
tp493
a(I2
g128
tp494
a(I3
g125
tp495
a(I0
g130
tp496
a(I1
g128
tp497
a(I2
g123
tp498
a(I3
g130
tp499
a(I0
g123
tp500
a(I1
g128
tp501
a(I2
g123
tp502
a(I3
g130
tp503
a(I0
g125
tp504
a(I1
g128
tp505
a(I2
g128
tp506
a(I3
g130
tp507
a(I0
g123
tp508
a(I1
g128
tp509
a(I2
g128
tp510
a(I3
g130
tp511
a(I0
g125
tp512
a(I1
g125
tp513
a(I2
g128
tp514
a(I3
g125
tp515
a(I0
g128
tp516
a(I1
g125
tp517
a(I2
g128
tp518
a(I3
g125
tp519
a(I0
g130
tp520
a(I1
g130
tp521
a(I2
g125
tp522
a(I3
g125
tp523
a(I0
g128
tp524
a(I1
g130
tp525
a(I2
g125
tp526
a(I3
g130
tp527
a(I0
g130
tp528
a(I1
g125
tp529
a(I2
g130
tp530
a(I3
g130
tp531
a(I0
g123
tp532
a(I1
g125
tp533
a(I2
g130
tp534
a(I3
g130
tp535
a(I0
g125
tp536
a(I1
g130
tp537
a(I2
g125
tp538
a(I3
g130
tp539
a(I0
g128
tp540
a(I1
g125
tp541
a(I2
g125
tp542
a(I3
g125
tp543
a(I0
g130
tp544
a(I1
g125
tp545
a(I2
g130
tp546
a(I3
g125
tp547
a(I0
g123
tp548
a(I1
g125
tp549
a(I2
g125
tp550
a(I3
g130
tp551
a(I0
g125
tp552
a(I1
g125
tp553
a(I2
g125
tp554
a(I3
g130
tp555
a(I0
g123
tp556
a(I1
g125
tp557
a(I2
g125
tp558
a(I3
g130
tp559
a(I0
g125
tp560
a(I1
g130
tp561
a(I2
g125
tp562
a(I3
g123
tp563
a(I0
g128
tp564
a(I1
g130
tp565
a(I2
g130
tp566
a(I3
g123
tp567
a(I0
g130
tp568
a(I1
g130
tp569
a(I2
g130
tp570
a(I3
g123
tp571
a(I0
g128
tp572
a(I1
g130
tp573
a(I2
g125
tp574
a(I3
g123
tp575
a(I0
g130
tp576
a(I1
g130
tp577
a(I2
g130
tp578
a(I3
g123
tp579
a(I0
g128
tp580
a(I1
g130
tp581
a(I2
g130
tp582
a(I3
g123
tp583
a(I0
g130
tp584
a(I1
g130
tp585
a(I2
g130
tp586
a(I3
g123
tp587
a(I0
g123
tp588
a(I1
g130
tp589
a(I2
g130
tp590
a(I3
g123
tp591
a(I0
g125
tp592
a(I1
g130
tp593
a(I2
g130
tp594
a(I3
g128
tp595
a(I0
g128
tp596
a(I1
g123
tp597
a(I2
g130
tp598
a(I3
g128
tp599
a(I0
g130
tp600
a(I1
g123
tp601
a(I2
g130
tp602
a(I3
g128
tp603
a(I0
g128
tp604
a(I1
g123
tp605
a(I2
g123
tp606
a(I3
g128
tp607
a(I0
g130
tp608
a(I1
g130
tp609
a(I2
g123
tp610
a(I3
g128
tp611
a(I0
g128
tp612
a(I1
g130
tp613
a(I2
g123
tp614
a(I3
g130
tp615
a(I0
g130
tp616
a(I1
g130
tp617
a(I2
g128
tp618
a(I3
g125
tp619
a(I0
g128
tp620
a(I1
g125
tp621
a(I2
g125
tp622
a(I3
g125
tp623
a(I0
g130
tp624
a(I1
g125
tp625
a(I2
g128
tp626
a(I3
g128
tp627
a(I0
g128
tp628
a(I1
g125
tp629
a(I2
g128
tp630
a(I3
g125
tp631
a(I0
g123
tp632
a(I1
g123
tp633
a(I2
g125
tp634
a(I3
g125
tp635
a(I0
g125
tp636
a(I1
g125
tp637
a(I2
g125
tp638
a(I3
g125
tp639
a(I0
g123
tp640
a(I1
g123
tp641
a(I2
g128
tp642
a(I3
g125
tp643
a(I0
g125
tp644
a(I1
g125
tp645
a(I2
g128
tp646
a(I3
g128
tp647
a(I0
g128
tp648
a(I1
g193
tp649
a(I2
g128
tp650
a(I3
g128
tp651
a(I0
g130
tp652
a(I1
g193
tp653
a(I2
g128
tp654
a(I3
g123
tp655
a(I0
g128
tp656
a(I1
g193
tp657
a(I2
g128
tp658
a(I3
g123
tp659
a(I0
g130
tp660
a(I1
g193
tp661
a(I2
g128
tp662
a(I3
g123
tp663
a(I0
g128
tp664
a(I1
g193
tp665
a(I2
g123
tp666
a(I3
g128
tp667
a(I0
g130
tp668
a(I1
g193
tp669
a(I2
g123
tp670
a(I3
g128
tp671
a(I0
g123
tp672
a(I1
g123
tp673
a(I2
g123
tp674
a(I3
g123
tp675
a(I0
g125
tp676
a(I1
g125
tp677
a(I2
g130
tp678
a(I3
g125
tp679
a(I0
g128
tp680
a(I1
g193
tp681
a(I2
g130
tp682
a(I3
g128
tp683
a(I0
g130
tp684
a(I1
g193
tp685
a(I2
g128
tp686
a(I3
g128
tp687
a(I0
g128
tp688
a(I1
g193
tp689
a(I2
g128
tp690
a(I3
g123
tp691
a(I0
g130
tp692
a(I1
g193
tp693
a(I2
g128
tp694
a(I3
g123
tp695
a(I0
g123
tp696
a(I1
g123
tp697
a(I2
g128
tp698
a(I3
g123
tp699
a(I0
g125
tp700
a(I1
g125
tp701
a(I2
g130
tp702
a(I3
g130
tp703
a(I0
g123
tp704
a(I1
g123
tp705
a(I2
g130
tp706
a(I3
g130
tp707
a(I0
g125
tp708
a(I1
g125
tp709
a(I2
g123
tp710
a(I3
g130
tp711
a(I0
g128
tp712
a(I1
g193
tp713
a(I2
g123
tp714
a(I3
g130
tp715
a(I0
g130
tp716
a(I1
g193
tp717
a(I2
g128
tp718
a(I3
g128
tp719
a(I0
g128
tp720
a(I1
g193
tp721
a(I2
g123
tp722
a(I3
g128
tp723
a(I0
g130
tp724
a(I1
g193
tp725
a(I2
g123
tp726
a(I3
g128
tp727
a(I0
g123
tp728
a(I1
g123
tp729
a(I2
g128
tp730
a(I3
g128
tp731
a(I0
g125
tp732
a(I1
g125
tp733
a(I2
g128
tp734
a(I3
g128
tp735
a(I0
g123
tp736
a(I1
g123
tp737
a(I2
g123
tp738
a(I3
g128
tp739
a(I0
g125
tp740
a(I1
g125
tp741
a(I2
g123
tp742
a(I3
g128
tp743
a(I0
g123
tp744
a(I1
g123
tp745
a(I2
g128
tp746
a(I3
g128
tp747
a(I0
g125
tp748
a(I1
g125
tp749
a(I2
g123
tp750
a(I3
g128
tp751
a(I0
g128
tp752
a(I1
g193
tp753
a(I2
g130
tp754
a(I3
g125
tp755
a(I0
g130
tp756
a(I1
g193
tp757
a(I2
g123
tp758
a(I3
g123
tp759
a(I0
g123
tp760
a(I1
g123
tp761
a(I2
g123
tp762
a(I3
g130
tp763
a(I0
g125
tp764
a(I1
g125
tp765
a(I2
g128
tp766
a(I3
g130
tp767
a(I0
g128
tp768
a(I1
g193
tp769
a(I2
g123
tp770
a(I3
g130
tp771
a(I0
g130
tp772
a(I1
g193
tp773
a(I2
g123
tp774
a(I3
g130
tp775
a(I0
g128
tp776
a(I1
g193
tp777
a(I2
g123
tp778
a(I3
g130
tp779
a(I0
g130
tp780
a(I1
g193
tp781
a(I2
g130
tp782
a(I3
g125
tp783
a(I0
g123
tp784
a(I1
g123
tp785
a(I2
g130
tp786
a(I3
g125
tp787
a(I0
g125
tp788
a(I1
g125
tp789
a(I2
g130
tp790
a(I3
g125
tp791
a(I0
g128
tp792
a(I1
g193
tp793
a(I2
g130
tp794
a(I3
g130
tp795
a(I0
g130
tp796
a(I1
g193
tp797
a(I2
g130
tp798
a(I3
g130
tp799
a(I0
g123
tp800
a(I1
g123
tp801
a(I2
g125
tp802
a(I3
g130
tp803
a(I0
g125
tp804
a(I1
g125
tp805
a(I2
g125
tp806
a(I3
g130
tp807
a(I0
g128
tp808
a(I1
g193
tp809
a(I2
g125
tp810
a(I3
g125
tp811
a(I0
g130
tp812
a(I1
g193
tp813
a(I2
g130
tp814
a(I3
g125
tp815
a(I0
g128
tp816
a(I1
g193
tp817
a(I2
g130
tp818
a(I3
g125
tp819
a(I0
g130
tp820
a(I1
g193
tp821
a(I2
g130
tp822
a(I3
g130
tp823
a(I0
g128
tp824
a(I1
g193
tp825
a(I2
g130
tp826
a(I3
g130
tp827
a(I0
g130
tp828
a(I1
g193
tp829
a(I2
g125
tp830
a(I3
g130
tp831
a(I0
g123
tp832
a(I1
g123
tp833
a(I2
g125
tp834
a(I3
g130
tp835
a(I0
g125
tp836
a(I1
g125
tp837
a(I2
g125
tp838
a(I3
g125
tp839
a(I0
g123
tp840
a(I1
g123
tp841
a(I2
g130
tp842
a(I3
g125
tp843
a(I0
g125
tp844
a(I1
g125
tp845
a(I2
g130
tp846
a(I3
g130
tp847
a(I0
g128
tp848
a(I1
g193
tp849
a(I2
g130
tp850
a(I3
g130
tp851
a(I0
g130
tp852
a(I1
g193
tp853
a(I2
g130
tp854
a(I3
g130
tp855
a(I0
g123
tp856
a(I1
g123
tp857
a(I2
g128
tp858
a(I3
g128
tp859
a(I0
g125
tp860
a(I1
g125
tp861
a(I2
g130
tp862
a(I3
g125
tp863
a(I0
g123
tp864
a(I1
g123
tp865
a(I2
g125
tp866
a(I3
g130
tp867
a(I0
g125
tp868
a(I1
g125
tp869
a(I2
g123
tp870
a(I3
g123
tp871
a(I0
g123
tp872
a(I1
g123
tp873
a(I2
g128
tp874
a(I3
g128
tp875
a(I0
g125
tp876
a(I1
g125
tp877
a(I2
g130
tp878
a(I3
g125
tp879
a(I0
g123
tp880
a(I1
g123
tp881
a(I2
g125
tp882
a(I3
g130
tp883
a(I0
g125
tp884
a(I1
g125
tp885
a(I2
g123
tp886
a(I3
g123
tp887
a(I0
g123
tp888
a(I1
g123
tp889
a(I2
g128
tp890
a(I3
g128
tp891
a(I0
g125
tp892
a(I1
g125
tp893
a(I2
g130
tp894
a(I3
g125
tp895
a(I0
g123
tp896
a(I1
g123
tp897
a(I2
g125
tp898
a(I3
g130
tp899
a(I0
g125
tp900
a(I1
g125
tp901
a(I2
g123
tp902
a(I3
g123
tp903
a(I0
g128
tp904
a(I1
g193
tp905
a(I2
g128
tp906
a(I3
g128
tp907
a(I0
g130
tp908
a(I1
g193
tp909
a(I2
g130
tp910
a(I3
g125
tp911
a(I0
g123
tp912
a(I1
g123
tp913
a(I2
g125
tp914
a(I3
g130
tp915
a(I0
g125
tp916
a(I1
g125
tp917
a(I2
g123
tp918
a(I3
g123
tp919
a(I0
g123
tp920
a(I1
g123
tp921
a(I2
g128
tp922
a(I3
g128
tp923
a(I0
g125
tp924
a(I1
g125
tp925
a(I2
g130
tp926
a(I3
g125
tp927
a(I0
g128
tp928
a(I1
g193
tp929
a(I2
g125
tp930
a(I3
g130
tp931
a(I0
g130
tp932
a(I1
g193
tp933
a(I2
g123
tp934
a(I3
g123
tp935
a(I0
g128
tp936
a(I1
g193
tp937
a(I2
g128
tp938
a(I3
g128
tp939
a(I0
g130
tp940
a(I1
g193
tp941
a(I2
g130
tp942
a(I3
g125
tp943
a(I0
g128
tp944
a(I1
g193
tp945
a(I2
g125
tp946
a(I3
g130
tp947
a(I0
g130
tp948
a(I1
g193
tp949
a(I2
g123
tp950
a(I3
g123
tp951
a(I0
g123
tp952
a(I1
g123
tp953
a(I2
g128
tp954
a(I3
g128
tp955
a(I0
g125
tp956
a(I1
g125
tp957
a(I2
g130
tp958
a(I3
g125
tp959
a(I0
g128
tp960
a(I1
g193
tp961
a(I2
g125
tp962
a(I3
g130
tp963
a(I0
g130
tp964
a(I1
g193
tp965
a(I2
g123
tp966
a(I3
g123
tp967
a(I0
g128
tp968
a(I1
g193
tp969
a(I2
g128
tp970
a(I3
g128
tp971
a(I0
g130
tp972
a(I1
g193
tp973
a(I2
g130
tp974
a(I3
g125
tp975
a(I0
g128
tp976
a(I1
g193
tp977
a(I2
g125
tp978
a(I3
g130
tp979
a(I0
g130
tp980
a(I1
g193
tp981
a(I2
g123
tp982
a(I3
g123
tp983
a(I0
g123
tp984
a(I1
g123
tp985
a(I2
g128
tp986
a(I3
g128
tp987
a(I0
g125
tp988
a(I1
g125
tp989
a(I2
g130
tp990
a(I3
g125
tp991
a(I0
g128
tp992
a(I1
g193
tp993
a(I2
g125
tp994
a(I3
g130
tp995
a(I0
g130
tp996
a(I1
g193
tp997
a(I2
g123
tp998
a(I3
g123
tp999
a(I0
g128
tp1000
a(I1
g193
tp1001
a(I2
g128
tp1002
a(I3
g128
tp1003
a(I0
g130
tp1004
a(I1
g193
tp1005
a(I2
g130
tp1006
a(I3
g125
tp1007
a(I0
g123
tp1008
a(I1
g123
tp1009
a(I2
g125
tp1010
a(I3
g130
tp1011
a(I0
g125
tp1012
a(I1
g125
tp1013
a(I2
g123
tp1014
a(I3
g123
tp1015
a(I0
g128
tp1016
a(I1
g193
tp1017
a(I2
g128
tp1018
a(I3
g128
tp1019
a(I0
g130
tp1020
a(I1
g193
tp1021
a(I2
g130
tp1022
a(I3
g125
tp1023
a(I0
g128
tp1024
a(I1
g193
tp1025
a(I2
g125
tp1026
a(I3
g130
tp1027
a(I0
g130
tp1028
a(I1
g193
tp1029
a(I2
g123
tp1030
a(I3
g123
tp1031
a(I0
g128
tp1032
a(I1
g193
tp1033
a(I2
g128
tp1034
a(I3
g128
tp1035
a(I0
g130
tp1036
a(I1
g193
tp1037
a(I2
g130
tp1038
a(I3
g125
tp1039
a(I0
g128
tp1040
a(I1
g193
tp1041
a(I2
g125
tp1042
a(I3
g130
tp1043
a(I0
g130
tp1044
a(I1
g193
tp1045
a(I2
g123
tp1046
a(I3
g123
tp1047
a(I0
g123
tp1048
a(I1
g123
tp1049
a(I2
g128
tp1050
a(I3
g128
tp1051
a(I0
g125
tp1052
a(I1
g125
tp1053
a(I2
g130
tp1054
a(I3
g125
tp1055
a(I0
g123
tp1056
a(I1
g123
tp1057
a(I2
g125
tp1058
a(I3
g130
tp1059
a(I0
g125
tp1060
a(I1
g125
tp1061
a(I2
g123
tp1062
a(I3
g123
tp1063
a(I0
g123
tp1064
a(I1
g123
tp1065
a(I2
g128
tp1066
a(I3
g128
tp1067
a(I0
g125
tp1068
a(I1
g125
tp1069
a(I2
g130
tp1070
a(I3
g125
tp1071
a(I0
g128
tp1072
a(I1
g193
tp1073
a(I2
g125
tp1074
a(I3
g130
tp1075
a(I0
g130
tp1076
a(I1
g193
tp1077
a(I2
g123
tp1078
a(I3
g123
tp1079
a(I0
g128
tp1080
a(I1
g193
tp1081
a(I2
g128
tp1082
a(I3
g128
tp1083
a(I0
g130
tp1084
a(I1
g193
tp1085
a(I2
g130
tp1086
a(I3
g125
tp1087
a(I0
g128
tp1088
a(I1
g193
tp1089
a(I2
g125
tp1090
a(I3
g130
tp1091
a(I0
g130
tp1092
a(I1
g193
tp1093
a(I2
g123
tp1094
a(I3
g123
tp1095
a(I0
g128
tp1096
a(I1
g193
tp1097
a(I2
g128
tp1098
a(I3
g128
tp1099
a(I0
g130
tp1100
a(I1
g193
tp1101
a(I2
g130
tp1102
a(I3
g125
tp1103
a(I0
g128
tp1104
a(I1
g193
tp1105
a(I2
g125
tp1106
a(I3
g130
tp1107
a(I0
g130
tp1108
a(I1
g193
tp1109
a(I2
g123
tp1110
a(I3
g123
tp1111
a(I0
g123
tp1112
a(I1
g123
tp1113
a(I2
g128
tp1114
a(I3
g128
tp1115
a(I0
g125
tp1116
a(I1
g125
tp1117
a(I2
g130
tp1118
a(I3
g125
tp1119
a(I0
g123
tp1120
a(I1
g123
tp1121
a(I2
g125
tp1122
a(I3
g130
tp1123
a(I0
g125
tp1124
a(I1
g125
tp1125
a(I2
g123
tp1126
a(I3
g123
tp1127
a(I0
g123
tp1128
a(I1
g123
tp1129
a(I2
g128
tp1130
a(I3
g128
tp1131
a(I0
g125
tp1132
a(I1
g125
tp1133
a(I2
g130
tp1134
a(I3
g125
tp1135
a(I0
g128
tp1136
a(I1
g193
tp1137
a(I2
g125
tp1138
a(I3
g130
tp1139
a(I0
g130
tp1140
a(I1
g193
tp1141
a(I2
g123
tp1142
a(I3
g123
tp1143
a(I0
g128
tp1144
a(I1
g193
tp1145
a(I2
g128
tp1146
a(I3
g128
tp1147
a(I0
g130
tp1148
a(I1
g193
tp1149
a(I2
g130
tp1150
a(I3
g125
tp1151
a(I0
g123
tp1152
a(I1
g123
tp1153
a(I2
g125
tp1154
a(I3
g130
tp1155
a(I0
g125
tp1156
a(I1
g125
tp1157
a(I2
g123
tp1158
a(I3
g123
tp1159
a(I0
g128
tp1160
a(I1
g193
tp1161
a(I2
g128
tp1162
a(I3
g128
tp1163
a(I0
g130
tp1164
a(I1
g193
tp1165
a(I2
g130
tp1166
a(I3
g125
tp1167
a(I0
g128
tp1168
a(I1
g193
tp1169
a(I2
g125
tp1170
a(I3
g130
tp1171
a(I0
g130
tp1172
a(I1
g193
tp1173
a(I2
g123
tp1174
a(I3
g123
tp1175
a(I0
g123
tp1176
a(I1
g123
tp1177
a(I2
g128
tp1178
a(I3
g128
tp1179
a(I0
g125
tp1180
a(I1
g125
tp1181
a(I2
g130
tp1182
a(I3
g125
tp1183
a(I0
g123
tp1184
a(I1
g123
tp1185
a(I2
g125
tp1186
a(I3
g130
tp1187
a(I0
g125
tp1188
a(I1
g125
tp1189
a(I2
g123
tp1190
a(I3
g123
tp1191
a(I0
g123
tp1192
a(I1
g123
tp1193
a(I2
g128
tp1194
a(I3
g128
tp1195
a(I0
g125
tp1196
a(I1
g125
tp1197
a(I2
g130
tp1198
a(I3
g125
tp1199
a(I0
g123
tp1200
a(I1
g123
tp1201
a(I2
g125
tp1202
a(I3
g130
tp1203
a(I0
g125
tp1204
a(I1
g125
tp1205
a(I2
g123
tp1206
a(I3
g123
tp1207
a(I0
g123
tp1208
a(I1
g123
tp1209
a(I2
g128
tp1210
a(I3
g128
tp1211
a(I0
g125
tp1212
a(I1
g125
tp1213
a(I2
g130
tp1214
a(I3
g125
tp1215
a(I0
g123
tp1216
a(I1
g123
tp1217
a(I2
g125
tp1218
a(I3
g130
tp1219
a(I0
g125
tp1220
a(I1
g125
tp1221
a(I2
g123
tp1222
a(I3
g123
tp1223
a(I0
g128
tp1224
a(I1
g193
tp1225
a(I2
g128
tp1226
a(I3
g128
tp1227
a(I0
g130
tp1228
a(I1
g193
tp1229
a(I2
g130
tp1230
a(I3
g125
tp1231
a(I0
g123
tp1232
a(I1
g123
tp1233
a(I2
g125
tp1234
a(I3
g130
tp1235
a(I0
g125
tp1236
a(I1
g125
tp1237
a(I2
g123
tp1238
a(I3
g123
tp1239
a(I0
g123
tp1240
a(I1
g123
tp1241
a(I2
g128
tp1242
a(I3
g128
tp1243
a(I0
g125
tp1244
a(I1
g125
tp1245
a(I2
g130
tp1246
a(I3
g125
tp1247
a(I0
g123
tp1248
a(I1
g123
tp1249
a(I2
g125
tp1250
a(I3
g130
tp1251
a(I0
g125
tp1252
a(I1
g125
tp1253
a(I2
g123
tp1254
a(I3
g123
tp1255
a(I0
g123
tp1256
a(I1
g123
tp1257
a(I2
g128
tp1258
a(I3
g128
tp1259
a(I0
g125
tp1260
a(I1
g125
tp1261
a(I2
g130
tp1262
a(I3
g125
tp1263
a(I0
g128
tp1264
a(I1
g193
tp1265
a(I2
g125
tp1266
a(I3
g130
tp1267
a(I0
g130
tp1268
a(I1
g193
tp1269
a(I2
g123
tp1270
a(I3
g123
tp1271
a(I0
g128
tp1272
a(I1
g193
tp1273
a(I2
g128
tp1274
a(I3
g128
tp1275
a(I0
g130
tp1276
a(I1
g193
tp1277
a(I2
g130
tp1278
a(I3
g125
tp1279
a(I0
g128
tp1280
a(I1
g193
tp1281
a(I2
g125
tp1282
a(I3
g130
tp1283
a(I0
g130
tp1284
a(I1
g193
tp1285
a(I2
g123
tp1286
a(I3
g123
tp1287
a(I0
g123
tp1288
a(I1
g123
tp1289
a(I2
g128
tp1290
a(I3
g128
tp1291
a(I0
g125
tp1292
a(I1
g125
tp1293
a(I2
g130
tp1294
a(I3
g125
tp1295
a(I0
g128
tp1296
a(I1
g193
tp1297
a(I2
g125
tp1298
a(I3
g130
tp1299
a(I0
g130
tp1300
a(I1
g193
tp1301
a(I2
g123
tp1302
a(I3
g123
tp1303
a(I0
g128
tp1304
a(I1
g193
tp1305
a(I2
g128
tp1306
a(I3
g128
tp1307
a(I0
g130
tp1308
a(I1
g193
tp1309
a(I2
g130
tp1310
a(I3
g125
tp1311
a(I0
g128
tp1312
a(I1
g193
tp1313
a(I2
g125
tp1314
a(I3
g130
tp1315
a(I0
g130
tp1316
a(I1
g193
tp1317
a(I2
g123
tp1318
a(I3
g123
tp1319
a(I0
g123
tp1320
a(I1
g123
tp1321
a(I2
g128
tp1322
a(I3
g128
tp1323
a(I0
g125
tp1324
a(I1
g125
tp1325
a(I2
g130
tp1326
a(I3
g130
tp1327
asS'length'
p1328
I1200
sS'agents'
p1329
(lp1330
(igame
Agent
p1331
(dp1332
S'index'
p1333
I0
sba(igame
Agent
p1334
(dp1335
g1333
I0
sba(igame
Agent
p1336
(dp1337
g1333
I0
sba(igame
Agent
p1338
(dp1339
g1333
I0
sbasS'redTeamName'
p1340
S'Red'
p1341
s.